; Function Attrs: nounwind uwtable
define ptr @l_Lean_Elab_Tactic_GuardExpr_elabAndEvalMatchKind(ptr noundef %0, ptr noundef %1, ptr noundef %2, ptr noundef %3, ptr noundef %4, ptr noundef %5, ptr noundef %6, ptr noundef %7, ptr noundef %8, ptr noundef %9) local_unnamed_addr #0 {
  tail call void @lean_inc_heartbeat() #4
  %11 = tail call noalias ptr @mi_malloc_small(i64 noundef 56) #4
  %12 = icmp eq ptr %11, null
  br i1 %12, label %13, label %lean_alloc_closure.exit

13:                                               ; preds = %10
  tail call void @lean_internal_panic_out_of_memory() #5
  unreachable

lean_alloc_closure.exit:                          ; preds = %10
  %14 = getelementptr inbounds nuw i8, ptr %11, i64 4
  store i32 1, ptr %11, align 4, !tbaa !8
  store i32 -184549320, ptr %14, align 4
  %15 = getelementptr inbounds nuw i8, ptr %11, i64 8
  store ptr @l_Lean_Elab_Tactic_GuardExpr_elabAndEvalMatchKind___lambda__1___boxed, ptr %15, align 8, !tbaa !4
  %16 = getelementptr inbounds nuw i8, ptr %11, i64 16
  store i16 11, ptr %16, align 8, !tbaa !15
  %17 = getelementptr inbounds nuw i8, ptr %11, i64 18
  store i16 4, ptr %17, align 2, !tbaa !15
  %18 = getelementptr inbounds nuw i8, ptr %11, i64 24
  store ptr %1, ptr %18, align 8, !tbaa !4
  %19 = getelementptr inbounds nuw i8, ptr %11, i64 32
  store ptr inttoptr (i64 1 to ptr), ptr %19, align 8, !tbaa !4
  %20 = getelementptr inbounds nuw i8, ptr %11, i64 40
  store ptr %2, ptr %20, align 8, !tbaa !4
  %21 = getelementptr inbounds nuw i8, ptr %11, i64 48
  store ptr %0, ptr %21, align 8, !tbaa !4
  %22 = tail call ptr @l_Lean_Elab_Term_withoutErrToSorryImp___rarg(ptr noundef nonnull %11, ptr noundef %3, ptr noundef %4, ptr noundef %5, ptr noundef %6, ptr noundef %7, ptr noundef %8, ptr noundef %9) #4
  ret ptr %22
}